Certificate:
    Data:
        Version: 3 (0x2)
        Serial Number: 1 (0x1)
    Signature Algorithm: sha256WithRSAEncryption
        Issuer: CN=devcert
        Validity
            Not Before: Apr 23 17:21:00 2020 GMT
            Not After : Jul 27 17:21:00 2022 GMT
        Subject: CN=localhost
        Subject Public Key Info:
            Public Key Algorithm: rsaEncryption
                Public-Key: (2048 bit)
                Modulus:
                    00:d3:71:f3:ab:ae:88:d5:e7:12:e5:49:7a:d8:ee:
                    4b:83:a5:1c:6f:bd:03:f4:ed:9c:49:75:b2:1a:40:
                    b6:9d:0f:6b:c4:1c:51:b5:6c:bb:7c:5c:62:48:5b:
                    b4:f5:9b:db:22:d3:22:f5:8a:b4:dc:b5:e5:a6:0d:
                    2f:9f:56:8d:72:ce:ab:d5:58:e1:6f:d0:35:38:20:
                    47:67:3c:26:a3:0d:4d:33:29:ff:27:02:f9:90:f6:
                    08:5a:60:12:c5:d2:f9:7d:c0:f7:b9:4b:7b:e6:40:
                    b3:a8:48:56:e5:c0:f9:ab:28:5b:fa:b5:d2:df:81:
                    fe:17:85:ca:d1:b3:a3:0f:9e:89:af:59:b0:d5:db:
                    57:65:8c:db:15:ea:6c:bc:1e:48:b2:ac:b1:62:5d:
                    99:5e:3e:12:e6:19:b9:3f:4c:a7:4c:dd:1d:3f:e5:
                    30:4f:c4:a1:f9:a0:c4:c8:4f:d8:e2:c1:fb:55:ea:
                    fe:f2:ac:ce:d7:2b:d1:48:e5:69:5c:c1:89:5d:18:
                    3e:3b:8d:b8:87:df:89:4f:92:c2:54:e5:61:a7:d1:
                    38:d9:6e:52:a5:4f:52:03:26:f0:c8:35:25:7b:36:
                    1a:33:68:90:b6:9b:f5:98:df:21:3b:e3:95:23:e4:
                    70:dd:0d:0a:db:48:3e:f3:1a:80:38:1e:a0:ad:6b:
                    95:f9
                Exponent: 65537 (0x10001)
        X509v3 extensions:
            X509v3 Basic Constraints: critical
                CA:FALSE
            X509v3 Subject Key Identifier: 
                07:55:D1:0D:02:A3:93:F7:5F:28:82:31:D6:BC:AF:92:E8:CE:97:FC
            X509v3 Authority Key Identifier: 
                keyid:2D:34:D3:0F:D5:19:E8:1F:2D:C6:66:BF:6E:45:2E:68:DA:68:CA:76
                DirName:/CN=devcert
                serial:85:65:79:B2:7D:9A:18:96

            X509v3 Key Usage: critical
                Digital Signature, Key Encipherment
            X509v3 Extended Key Usage: 
                TLS Web Server Authentication
            X509v3 Subject Alternative Name: 
                DNS:localhost, DNS:*.localhost
    Signature Algorithm: sha256WithRSAEncryption
         39:44:9a:bd:7e:d5:db:b1:90:b9:05:86:f5:96:f6:29:73:f7:
         a4:da:4a:98:7e:44:43:34:66:64:43:07:a5:df:6d:d4:80:0b:
         3f:45:b0:cd:a3:32:cb:39:60:c7:29:f1:7e:fc:7c:48:6a:95:
         bf:1c:ed:8b:76:77:bb:ba:5a:71:99:26:f8:61:85:9c:30:6f:
         94:ff:09:7d:e7:4a:a9:c8:8b:f9:44:bb:f3:c4:8e:6f:35:7d:
         c7:6f:72:8e:97:7b:b2:ac:2d:4c:5e:d1:38:bc:0a:e7:e6:da:
         7c:ee:d4:46:74:d9:a7:c4:b1:79:d8:8f:05:57:33:5d:00:8e:
         e3:41:2e:ef:05:93:d4:93:a7:0c:80:10:34:05:a3:68:08:78:
         7f:f2:18:15:2c:2a:64:fe:e6:1c:ac:79:8a:25:70:68:06:11:
         2d:2c:27:58:88:a4:c5:cc:8c:1f:27:d4:48:db:9d:94:85:84:
         ca:8f:cc:e1:db:df:e9:77:bc:c5:5a:22:2e:49:7c:9c:5d:98:
         35:22:a6:69:5a:97:5b:bc:64:c2:e8:2b:12:6e:c8:08:ad:d2:
         b4:ef:37:81:26:cc:0a:a9:b2:be:12:8d:d8:95:c6:28:72:14:
         86:b3:22:1a:60:0e:82:95:16:6f:61:b1:03:f4:f9:43:75:d9:
         67:66:a0:3e
-----BEGIN CERTIFICATE-----
MIIDXjCCAkagAwIBAgIBATANBgkqhkiG9w0BAQsFADASMRAwDgYDVQQDDAdkZXZj
ZXJ0MB4XDTIwMDQyMzE3MjEwMFoXDTIyMDcyNzE3MjEwMFowFDESMBAGA1UEAwwJ
bG9jYWxob3N0MIIBIjANBgkqhkiG9w0BAQEFAAOCAQ8AMIIBCgKCAQEA03Hzq66I
1ecS5Ul62O5Lg6Ucb70D9O2cSXWyGkC2nQ9rxBxRtWy7fFxiSFu09ZvbItMi9Yq0
3LXlpg0vn1aNcs6r1Vjhb9A1OCBHZzwmow1NMyn/JwL5kPYIWmASxdL5fcD3uUt7
5kCzqEhW5cD5qyhb+rXS34H+F4XK0bOjD56Jr1mw1dtXZYzbFepsvB5IsqyxYl2Z
Xj4S5hm5P0ynTN0dP+UwT8Sh+aDEyE/Y4sH7Ver+8qzO1yvRSOVpXMGJXRg+O424
h9+JT5LCVOVhp9E42W5SpU9SAybwyDUlezYaM2iQtpv1mN8hO+OVI+Rw3Q0K20g+
8xqAOB6grWuV+QIDAQABo4G8MIG5MAwGA1UdEwEB/wQCMAAwHQYDVR0OBBYEFAdV
0Q0Co5P3XyiCMda8r5Lozpf8MEIGA1UdIwQ7MDmAFC000w/VGegfLcZmv25FLmja
aMp2oRakFDASMRAwDgYDVQQDDAdkZXZjZXJ0ggkAhWV5sn2aGJYwDgYDVR0PAQH/
BAQDAgWgMBMGA1UdJQQMMAoGCCsGAQUFBwMBMCEGA1UdEQQaMBiCCWxvY2FsaG9z
dIILKi5sb2NhbGhvc3QwDQYJKoZIhvcNAQELBQADggEBADlEmr1+1duxkLkFhvWW
9ilz96TaSph+REM0ZmRDB6XfbdSACz9FsM2jMss5YMcp8X78fEhqlb8c7Yt2d7u6
WnGZJvhhhZwwb5T/CX3nSqnIi/lEu/PEjm81fcdvco6Xe7KsLUxe0Ti8Cufm2nzu
1EZ02afEsXnYjwVXM10AjuNBLu8Fk9STpwyAEDQFo2gIeH/yGBUsKmT+5hyseYol
cGgGES0sJ1iIpMXMjB8n1EjbnZSFhMqPzOHb3+l3vMVaIi5JfJxdmDUipmlal1u8
ZMLoKxJuyAit0rTvN4EmzAqpsr4SjdiVxihyFIazIhpgDoKVFm9hsQP0+UN12Wdm
oD4=
-----END CERTIFICATE-----
